target datalayout = "e-m:e-p270:32:32-p271:32:32-p272:64:64-i64:64-i128:128-f80:128-n8:16:32:64-S128"
target triple = "x86_64-pc-linux-gnu"

%"class.net::QuicBandwidth" = type { i64 }
%"class.logging::LogMessage" = type <{ i32, [4 x i8], %"class.std::__cxx11::basic_ostringstream", i64, ptr, i32, [4 x i8] }>
%"class.std::__cxx11::basic_ostringstream" = type { %"class.std::basic_ostream.base", %"class.std::__cxx11::basic_stringbuf", %"class.std::basic_ios" }
%"class.std::basic_ostream.base" = type { ptr }
%"class.std::__cxx11::basic_stringbuf" = type { %"class.std::basic_streambuf", i32, %"class.std::__cxx11::basic_string" }
%"class.std::basic_streambuf" = type { ptr, ptr, ptr, ptr, ptr, ptr, ptr, %"class.std::locale" }
%"class.std::locale" = type { ptr }
%"class.std::__cxx11::basic_string" = type { %"struct.std::__cxx11::basic_string<char>::_Alloc_hider", i64, %union.anon }
%"struct.std::__cxx11::basic_string<char>::_Alloc_hider" = type { ptr }
%union.anon = type { i64, [8 x i8] }
%"class.std::basic_ios" = type { %"class.std::ios_base", ptr, i8, i8, ptr, ptr, ptr, ptr }
%"class.std::ios_base" = type { ptr, i64, i64, i32, i32, i32, ptr, %"struct.std::ios_base::_Words", [8 x %"struct.std::ios_base::_Words"], i32, ptr, %"class.std::locale" }
%"struct.std::ios_base::_Words" = type { ptr, i64 }
%"class.logging::LogMessageVoidify" = type { i8 }

@.str = private unnamed_addr constant [129 x i8] c"generated/home/dtcxzyw/WorkSpace/Projects/compilers/llvm-opt-benchmark/bench/libquic/libquic/src/net/quic/core/quic_bandwidth.cc\00", align 1
@.str.1 = private unnamed_addr constant [30 x i8] c"Can't set negative bandwidth \00", align 1

; Function Attrs: inlinehint mustprogress nounwind uwtable
define linkonce_odr noundef i32 @_ZStorSt12_Ios_IostateS_(i32 noundef %0, i32 noundef %1) #5 comdat {
  %3 = alloca i32, align 4
  %4 = alloca i32, align 4
  store i32 %0, ptr %3, align 4, !tbaa !41
  store i32 %1, ptr %4, align 4, !tbaa !41
  %5 = load i32, ptr %3, align 4, !tbaa !41
  %6 = load i32, ptr %4, align 4, !tbaa !41
  %7 = or i32 %5, %6
  ret i32 %7
}

; Function Attrs: mustprogress nounwind uwtable
define available_externally noundef i32 @_ZNKSt9basic_iosIcSt11char_traitsIcEE7rdstateEv(ptr noundef nonnull align 8 dereferenceable(264) %0) #1 align 2 {
  %2 = alloca ptr, align 8
  store ptr %0, ptr %2, align 8, !tbaa !39
  %3 = load ptr, ptr %2, align 8
  %4 = getelementptr inbounds nuw %"class.std::ios_base", ptr %3, i32 0, i32 5
  %5 = load i32, ptr %4, align 8, !tbaa !43
  ret i32 %5
}

; Function Attrs: mustprogress nounwind uwtable
define linkonce_odr noundef i64 @_ZNSt11char_traitsIcE6lengthEPKc(ptr noundef %0) #1 comdat align 2 {
  %2 = alloca ptr, align 8
  store ptr %0, ptr %2, align 8, !tbaa !29
  %3 = load ptr, ptr %2, align 8, !tbaa !29
  %4 = call i64 @strlen(ptr noundef %3) #7
  ret i64 %4
}

; Function Attrs: mustprogress uwtable
define available_externally void @_ZNSt9basic_iosIcSt11char_traitsIcEE8setstateESt12_Ios_Iostate(ptr noundef nonnull align 8 dereferenceable(264) %0, i32 noundef %1) #0 align 2 {
  %3 = alloca ptr, align 8
  %4 = alloca i32, align 4
  store ptr %0, ptr %3, align 8, !tbaa !39
  store i32 %1, ptr %4, align 4, !tbaa !41
  %5 = load ptr, ptr %3, align 8
  %6 = call noundef i32 @_ZNKSt9basic_iosIcSt11char_traitsIcEE7rdstateEv(ptr noundef nonnull align 8 dereferenceable(264) %5)
  %7 = load i32, ptr %4, align 4, !tbaa !41
  %8 = call noundef i32 @_ZStorSt12_Ios_IostateS_(i32 noundef %6, i32 noundef %7)
  call void @_ZNSt9basic_iosIcSt11char_traitsIcEE5clearESt12_Ios_Iostate(ptr noundef nonnull align 8 dereferenceable(264) %5, i32 noundef %8)
  ret void
}

; Function Attrs: mustprogress nounwind uwtable
define linkonce_odr void @_ZN7logging17LogMessageVoidifyanERSo(ptr noundef nonnull align 1 dereferenceable(1) %0, ptr noundef nonnull align 8 dereferenceable(8) %1) #1 comdat align 2 {
  %3 = alloca ptr, align 8
  %4 = alloca ptr, align 8
  store ptr %0, ptr %3, align 8, !tbaa !25
  store ptr %1, ptr %4, align 8, !tbaa !27
  ret void
}

; Function Attrs: mustprogress uwtable
define available_externally noundef nonnull align 8 dereferenceable(8) ptr @_ZNSolsEl(ptr noundef nonnull align 8 dereferenceable(8) %0, i64 noundef %1) #0 align 2 {
  %3 = alloca ptr, align 8
  %4 = alloca i64, align 8
  store ptr %0, ptr %3, align 8, !tbaa !27
  store i64 %1, ptr %4, align 8, !tbaa !3
  %5 = load ptr, ptr %3, align 8
  %6 = load i64, ptr %4, align 8, !tbaa !3
  %7 = call noundef nonnull align 8 dereferenceable(8) ptr @_ZNSo9_M_insertIlEERSoT_(ptr noundef nonnull align 8 dereferenceable(8) %5, i64 noundef %6)
  ret ptr %7
}

; Function Attrs: inlinehint mustprogress uwtable
define available_externally noundef nonnull align 8 dereferenceable(8) ptr @_ZStlsISt11char_traitsIcEERSt13basic_ostreamIcT_ES5_PKc(ptr noundef nonnull align 8 dereferenceable(8) %0, ptr noundef %1) #6 {
  %3 = alloca ptr, align 8
  %4 = alloca ptr, align 8
  store ptr %0, ptr %3, align 8, !tbaa !27
  store ptr %1, ptr %4, align 8, !tbaa !29
  %5 = load ptr, ptr %4, align 8, !tbaa !29
  %6 = icmp ne ptr %5, null
  br i1 %6, label %13, label %7

7:                                                ; preds = %2
  %8 = load ptr, ptr %3, align 8, !tbaa !27
  %9 = load ptr, ptr %8, align 8, !tbaa !31
  %10 = getelementptr i8, ptr %9, i64 -24
  %11 = load i64, ptr %10, align 8
  %12 = getelementptr inbounds i8, ptr %8, i64 %11
  call void @_ZNSt9basic_iosIcSt11char_traitsIcEE8setstateESt12_Ios_Iostate(ptr noundef nonnull align 8 dereferenceable(264) %12, i32 noundef 1)
  br label %19

13:                                               ; preds = %2
  %14 = load ptr, ptr %3, align 8, !tbaa !27
  %15 = load ptr, ptr %4, align 8, !tbaa !29
  %16 = load ptr, ptr %4, align 8, !tbaa !29
  %17 = call noundef i64 @_ZNSt11char_traitsIcE6lengthEPKc(ptr noundef %16)
  %18 = call noundef nonnull align 8 dereferenceable(8) ptr @_ZSt16__ostream_insertIcSt11char_traitsIcEERSt13basic_ostreamIT_T0_ES6_PKS3_l(ptr noundef nonnull align 8 dereferenceable(8) %14, ptr noundef %15, i64 noundef %17)
  br label %19

19:                                               ; preds = %13, %7
  %20 = load ptr, ptr %3, align 8, !tbaa !27
  ret ptr %20
}

; Function Attrs: mustprogress nounwind uwtable
define linkonce_odr noundef nonnull align 8 dereferenceable(8) ptr @_ZN7logging10LogMessage6streamEv(ptr noundef nonnull align 8 dereferenceable(404) %0) #1 comdat align 2 {
  %2 = alloca ptr, align 8
  store ptr %0, ptr %2, align 8, !tbaa !14
  %3 = load ptr, ptr %2, align 8
  %4 = getelementptr inbounds nuw %"class.logging::LogMessage", ptr %3, i32 0, i32 2
  ret ptr %4
}

; Function Attrs: mustprogress nounwind uwtable
define linkonce_odr void @_ZN7logging17LogMessageVoidifyC2Ev(ptr noundef nonnull align 1 dereferenceable(1) %0) unnamed_addr #1 comdat align 2 {
  %2 = alloca ptr, align 8
  store ptr %0, ptr %2, align 8, !tbaa !25
  ret void
}

; Function Attrs: mustprogress uwtable
define void @_ZN3net13QuicBandwidthC2El(ptr noundef nonnull align 8 dereferenceable(8) %0, i64 noundef %1) unnamed_addr #0 align 2 personality ptr @__gxx_personality_v0 {
  %3 = alloca ptr, align 8
  %4 = alloca i64, align 8
  %5 = alloca %"class.logging::LogMessageVoidify", align 1
  %6 = alloca %"class.logging::LogMessage", align 8
  %7 = alloca i1, align 1
  %8 = alloca i1, align 1
  %9 = alloca ptr, align 8
  %10 = alloca i32, align 4
  store ptr %0, ptr %3, align 8, !tbaa !21
  store i64 %1, ptr %4, align 8, !tbaa !3
  %11 = load ptr, ptr %3, align 8
  %12 = getelementptr inbounds nuw %"class.net::QuicBandwidth", ptr %11, i32 0, i32 0
  %13 = load i64, ptr %4, align 8, !tbaa !3
  store i64 %13, ptr %12, align 8, !tbaa !23
  %14 = load i64, ptr %4, align 8, !tbaa !3
  %15 = icmp slt i64 %14, 0
  br i1 %15, label %16, label %46

16:                                               ; preds = %2
  %17 = call noundef zeroext i1 @_ZN7logging22ShouldCreateLogMessageEi(i32 noundef 2)
  call void @llvm.lifetime.start.p0(i64 1, ptr %5) #7
  store i1 false, ptr %7, align 1
  store i1 false, ptr %8, align 1
  br i1 %17, label %19, label %18

18:                                               ; preds = %16
  br label %28

19:                                               ; preds = %16
  call void @_ZN7logging17LogMessageVoidifyC2Ev(ptr noundef nonnull align 1 dereferenceable(1) %5)
  call void @llvm.lifetime.start.p0(i64 408, ptr %6) #7
  store i1 true, ptr %7, align 1
  call void @_ZN7logging10LogMessageC1EPKcii(ptr noundef nonnull align 8 dereferenceable(404) %6, ptr noundef @.str, i32 noundef 71, i32 noundef 2)
  store i1 true, ptr %8, align 1
  %20 = invoke noundef nonnull align 8 dereferenceable(8) ptr @_ZN7logging10LogMessage6streamEv(ptr noundef nonnull align 8 dereferenceable(404) %6)
          to label %21 unwind label %36

21:                                               ; preds = %19
  %22 = invoke noundef nonnull align 8 dereferenceable(8) ptr @_ZStlsISt11char_traitsIcEERSt13basic_ostreamIcT_ES5_PKc(ptr noundef nonnull align 8 dereferenceable(8) %20, ptr noundef @.str.1)
          to label %23 unwind label %36

23:                                               ; preds = %21
  %24 = load i64, ptr %4, align 8, !tbaa !3
  %25 = invoke noundef nonnull align 8 dereferenceable(8) ptr @_ZNSolsEl(ptr noundef nonnull align 8 dereferenceable(8) %22, i64 noundef %24)
          to label %26 unwind label %36

26:                                               ; preds = %23
  invoke void @_ZN7logging17LogMessageVoidifyanERSo(ptr noundef nonnull align 1 dereferenceable(1) %5, ptr noundef nonnull align 8 dereferenceable(8) %25)
          to label %27 unwind label %36

27:                                               ; preds = %26
  br label %28

28:                                               ; preds = %27, %18
  %29 = load i1, ptr %8, align 1
  br i1 %29, label %30, label %31

30:                                               ; preds = %28
  call void @_ZN7logging10LogMessageD1Ev(ptr noundef nonnull align 8 dereferenceable(404) %6) #7
  br label %31

31:                                               ; preds = %30, %28
  %32 = load i1, ptr %7, align 1
  br i1 %32, label %33, label %34

33:                                               ; preds = %31
  call void @llvm.lifetime.end.p0(i64 408, ptr %6) #7
  br label %34

34:                                               ; preds = %33, %31
  call void @llvm.lifetime.end.p0(i64 1, ptr %5) #7
  %35 = getelementptr inbounds nuw %"class.net::QuicBandwidth", ptr %11, i32 0, i32 0
  store i64 0, ptr %35, align 8, !tbaa !23
  br label %49

36:                                               ; preds = %26, %23, %21, %19
  %37 = landingpad { ptr, i32 }
          cleanup
  %38 = extractvalue { ptr, i32 } %37, 0
  store ptr %38, ptr %9, align 8
  %39 = extractvalue { ptr, i32 } %37, 1
  store i32 %39, ptr %10, align 4
  %40 = load i1, ptr %8, align 1
  br i1 %40, label %41, label %42

41:                                               ; preds = %36
  call void @_ZN7logging10LogMessageD1Ev(ptr noundef nonnull align 8 dereferenceable(404) %6) #7
  br label %42

42:                                               ; preds = %41, %36
  %43 = load i1, ptr %7, align 1
  br i1 %43, label %44, label %45

44:                                               ; preds = %42
  call void @llvm.lifetime.end.p0(i64 408, ptr %6) #7
  br label %45

45:                                               ; preds = %44, %42
  call void @llvm.lifetime.end.p0(i64 1, ptr %5) #7
  br label %50

46:                                               ; preds = %2
  %47 = load i64, ptr %4, align 8, !tbaa !3
  %48 = getelementptr inbounds nuw %"class.net::QuicBandwidth", ptr %11, i32 0, i32 0
  store i64 %47, ptr %48, align 8, !tbaa !23
  br label %49

49:                                               ; preds = %46, %34
  ret void

50:                                               ; preds = %45
  %51 = load ptr, ptr %9, align 8
  %52 = load i32, ptr %10, align 4
  %53 = insertvalue { ptr, i32 } poison, ptr %51, 0
  %54 = insertvalue { ptr, i32 } %53, i32 %52, 1
  resume { ptr, i32 } %54
}