; Function Attrs: mustprogress uwtable
define void @_ZN3net13QuicBandwidthC2El(ptr noundef nonnull writeonly align 8 captures(none) dereferenceable(8) initializes((0, 8)) %0, i64 noundef %1) unnamed_addr #0 align 2 personality ptr @__gxx_personality_v0 {
  %3 = alloca %"class.logging::LogMessage", align 8
  store i64 %1, ptr %0, align 8, !tbaa !3
  %4 = icmp slt i64 %1, 0
  br i1 %4, label %5, label %.critedge12

5:                                                ; preds = %2
  %6 = tail call noundef zeroext i1 @_ZN7logging22ShouldCreateLogMessageEi(i32 noundef 2)
  br i1 %6, label %7, label %.critedge12

7:                                                ; preds = %5
  call void @llvm.lifetime.start.p0(i64 408, ptr nonnull %3) #5
  call void @_ZN7logging10LogMessageC1EPKcii(ptr noundef nonnull align 8 dereferenceable(404) %3, ptr noundef nonnull @.str, i32 noundef 71, i32 noundef 2)
  %8 = getelementptr inbounds nuw i8, ptr %3, i64 8
  %9 = invoke noundef nonnull align 8 dereferenceable(8) ptr @_ZSt16__ostream_insertIcSt11char_traitsIcEERSt13basic_ostreamIT_T0_ES6_PKS3_l(ptr noundef nonnull align 8 dereferenceable(8) %8, ptr noundef nonnull @.str.1, i64 noundef 29)
          to label %_ZStlsISt11char_traitsIcEERSt13basic_ostreamIcT_ES5_PKc.exit unwind label %11

_ZStlsISt11char_traitsIcEERSt13basic_ostreamIcT_ES5_PKc.exit: ; preds = %7
  %10 = invoke noundef nonnull align 8 dereferenceable(8) ptr @_ZNSo9_M_insertIlEERSoT_(ptr noundef nonnull align 8 dereferenceable(8) %8, i64 noundef %1)
          to label %.critedge unwind label %11

.critedge:                                        ; preds = %_ZStlsISt11char_traitsIcEERSt13basic_ostreamIcT_ES5_PKc.exit
  call void @_ZN7logging10LogMessageD1Ev(ptr noundef nonnull align 8 dereferenceable(404) %3) #5
  call void @llvm.lifetime.end.p0(i64 408, ptr nonnull %3) #5
  br label %.critedge12

11:                                               ; preds = %_ZStlsISt11char_traitsIcEERSt13basic_ostreamIcT_ES5_PKc.exit, %7
  %12 = landingpad { ptr, i32 }
          cleanup
  call void @_ZN7logging10LogMessageD1Ev(ptr noundef nonnull align 8 dereferenceable(404) %3) #5
  call void @llvm.lifetime.end.p0(i64 408, ptr nonnull %3) #5
  resume { ptr, i32 } %12

.critedge12:                                      ; preds = %.critedge, %5, %2
  %storemerge = phi i64 [ %1, %2 ], [ 0, %5 ], [ 0, %.critedge ]
  store i64 %storemerge, ptr %0, align 8, !tbaa !3
  ret void
}